; Function Attrs: mustprogress null_pointer_is_valid sspstrong uwtable
define internal void @"_ZN9QtPrivate18QFunctorSlotObjectIZN19WiresharkMainWindow22connectFileMenuActionsEvE3$_0Li0ENS_4ListIJEEEvE4implEiPNS_15QSlotObjectBaseEP7QObjectPPvPb"(i32 noundef %0, ptr noundef %1, ptr readnone captures(none) %2, ptr readnone captures(none) %3, ptr readnone captures(none) %4) #0 align 2 personality ptr @__gxx_personality_v0 {
  %6 = alloca %class.QString, align 8
  %7 = alloca %class.QString, align 8
  switch i32 %0, label %33 [
    i32 0, label %8
    i32 1, label %11
  ]

8:                                                ; preds = %5
  %9 = icmp eq ptr %1, null
  br i1 %9, label %33, label %10

10:                                               ; preds = %8
  tail call void @_ZdlPvm(ptr noundef nonnull %1, i64 noundef 24) #26
  br label %33

11:                                               ; preds = %5
  %12 = getelementptr inbounds nuw i8, ptr %1, i64 16
  %.val = load ptr, ptr %12, align 8
  call void @llvm.lifetime.start.p0(i64 24, ptr nonnull %6)
  call void @llvm.lifetime.start.p0(i64 24, ptr nonnull %7)
  call void @llvm.memset.p0.i64(ptr noundef nonnull align 8 dereferenceable(24) dereferenceable_or_null(24) %6, i8 0, i64 24, i1 false)
  call void @llvm.memset.p0.i64(ptr noundef nonnull align 8 dereferenceable(24) dereferenceable_or_null(24) %7, i8 0, i64 24, i1 false)
  %13 = invoke noundef zeroext i1 @_ZN19WiresharkMainWindow15openCaptureFileE7QStringS0_(ptr noundef align 8 dereferenceable_or_null(560) %.val, ptr noundef nonnull %6, ptr noundef nonnull %7)
          to label %14 unwind label %23

14:                                               ; preds = %11
  %15 = load ptr, ptr %7, align 8
  %.not.i.i.i.i.i.i = icmp eq ptr %15, null
  br i1 %.not.i.i.i.i.i.i, label %_ZN7QStringD2Ev.exit.i.i.i, label %_ZN17QArrayDataPointerIDsE5derefEv.exit.i.i.i.i.i

_ZN17QArrayDataPointerIDsE5derefEv.exit.i.i.i.i.i: ; preds = %14
  %16 = atomicrmw sub ptr %15, i32 1 seq_cst, align 4
  %.not.i.i.i.i.i = icmp eq i32 %16, 1
  br i1 %.not.i.i.i.i.i, label %17, label %_ZN7QStringD2Ev.exit.i.i.i

17:                                               ; preds = %_ZN17QArrayDataPointerIDsE5derefEv.exit.i.i.i.i.i
  %18 = load ptr, ptr %7, align 8
  call void @_ZN10QArrayData10deallocateEPS_xx(ptr noundef %18, i64 noundef 2, i64 noundef 8) #25
  br label %_ZN7QStringD2Ev.exit.i.i.i

_ZN7QStringD2Ev.exit.i.i.i:                       ; preds = %17, %_ZN17QArrayDataPointerIDsE5derefEv.exit.i.i.i.i.i, %14
  %19 = load ptr, ptr %6, align 8
  %.not.i.i.i2.i.i.i = icmp eq ptr %19, null
  br i1 %.not.i.i.i2.i.i.i, label %"_ZN9QtPrivate7FunctorIZN19WiresharkMainWindow22connectFileMenuActionsEvE3$_0Li0EE4callINS_4ListIJEEEvEEvRS2_PvPS8_.exit", label %_ZN17QArrayDataPointerIDsE5derefEv.exit.i.i3.i.i.i

_ZN17QArrayDataPointerIDsE5derefEv.exit.i.i3.i.i.i: ; preds = %_ZN7QStringD2Ev.exit.i.i.i
  %20 = atomicrmw sub ptr %19, i32 1 seq_cst, align 4
  %.not.i.i4.i.i.i = icmp eq i32 %20, 1
  br i1 %.not.i.i4.i.i.i, label %21, label %"_ZN9QtPrivate7FunctorIZN19WiresharkMainWindow22connectFileMenuActionsEvE3$_0Li0EE4callINS_4ListIJEEEvEEvRS2_PvPS8_.exit"

21:                                               ; preds = %_ZN17QArrayDataPointerIDsE5derefEv.exit.i.i3.i.i.i
  %22 = load ptr, ptr %6, align 8
  call void @_ZN10QArrayData10deallocateEPS_xx(ptr noundef %22, i64 noundef 2, i64 noundef 8) #25
  br label %"_ZN9QtPrivate7FunctorIZN19WiresharkMainWindow22connectFileMenuActionsEvE3$_0Li0EE4callINS_4ListIJEEEvEEvRS2_PvPS8_.exit"

23:                                               ; preds = %11
  %24 = landingpad { ptr, i32 }
          cleanup
  %25 = load ptr, ptr %7, align 8
  %.not.i.i.i6.i.i.i = icmp eq ptr %25, null
  br i1 %.not.i.i.i6.i.i.i, label %_ZN7QStringD2Ev.exit9.i.i.i, label %_ZN17QArrayDataPointerIDsE5derefEv.exit.i.i7.i.i.i

_ZN17QArrayDataPointerIDsE5derefEv.exit.i.i7.i.i.i: ; preds = %23
  %26 = atomicrmw sub ptr %25, i32 1 seq_cst, align 4
  %.not.i.i8.i.i.i = icmp eq i32 %26, 1
  br i1 %.not.i.i8.i.i.i, label %27, label %_ZN7QStringD2Ev.exit9.i.i.i

27:                                               ; preds = %_ZN17QArrayDataPointerIDsE5derefEv.exit.i.i7.i.i.i
  %28 = load ptr, ptr %7, align 8
  call void @_ZN10QArrayData10deallocateEPS_xx(ptr noundef %28, i64 noundef 2, i64 noundef 8) #25
  br label %_ZN7QStringD2Ev.exit9.i.i.i

_ZN7QStringD2Ev.exit9.i.i.i:                      ; preds = %27, %_ZN17QArrayDataPointerIDsE5derefEv.exit.i.i7.i.i.i, %23
  %29 = load ptr, ptr %6, align 8
  %.not.i.i.i10.i.i.i = icmp eq ptr %29, null
  br i1 %.not.i.i.i10.i.i.i, label %_ZN7QStringD2Ev.exit13.i.i.i, label %_ZN17QArrayDataPointerIDsE5derefEv.exit.i.i11.i.i.i

_ZN17QArrayDataPointerIDsE5derefEv.exit.i.i11.i.i.i: ; preds = %_ZN7QStringD2Ev.exit9.i.i.i
  %30 = atomicrmw sub ptr %29, i32 1 seq_cst, align 4
  %.not.i.i12.i.i.i = icmp eq i32 %30, 1
  br i1 %.not.i.i12.i.i.i, label %31, label %_ZN7QStringD2Ev.exit13.i.i.i

31:                                               ; preds = %_ZN17QArrayDataPointerIDsE5derefEv.exit.i.i11.i.i.i
  %32 = load ptr, ptr %6, align 8
  call void @_ZN10QArrayData10deallocateEPS_xx(ptr noundef %32, i64 noundef 2, i64 noundef 8) #25
  br label %_ZN7QStringD2Ev.exit13.i.i.i

_ZN7QStringD2Ev.exit13.i.i.i:                     ; preds = %31, %_ZN17QArrayDataPointerIDsE5derefEv.exit.i.i11.i.i.i, %_ZN7QStringD2Ev.exit9.i.i.i
  resume { ptr, i32 } %24

"_ZN9QtPrivate7FunctorIZN19WiresharkMainWindow22connectFileMenuActionsEvE3$_0Li0EE4callINS_4ListIJEEEvEEvRS2_PvPS8_.exit": ; preds = %_ZN7QStringD2Ev.exit.i.i.i, %_ZN17QArrayDataPointerIDsE5derefEv.exit.i.i3.i.i.i, %21
  call void @llvm.lifetime.end.p0(i64 24, ptr nonnull %6)
  call void @llvm.lifetime.end.p0(i64 24, ptr nonnull %7)
  br label %33

33:                                               ; preds = %8, %10, %"_ZN9QtPrivate7FunctorIZN19WiresharkMainWindow22connectFileMenuActionsEvE3$_0Li0EE4callINS_4ListIJEEEvEEvRS2_PvPS8_.exit", %5
  ret void
}